(lp0
F0.0
aF0.1
aF0.2
aF0.3
aF0.4
aF0.5
aF0.6
aF0.7
aF0.8
aF0.9
aF1.0
aF1.1
aF1.2
aF1.3
aF1.4
aF1.5
aF1.6
aF1.7
aF1.8
aF1.9
aF2.0
aF2.1
aF2.2
aF2.3
aF2.4
aF2.5
aF2.6
aF2.7
aF2.8
aF2.9
aF3.0
aF3.1
aF3.2
aF3.3
aF3.4
aF3.5
aF3.6
aF3.7
aF3.8
aF3.9
aF4.0
aF4.1
aF4.2
aF4.3
aF4.4
aF4.5
aF4.6
aF4.7
aF4.8
aF4.9
aF5.0
aF5.1
aF5.2
aF5.3
aF5.4
aF5.5
aF5.6
aF5.7
aF5.8
aF5.9
aF6.0
aF6.1
aF6.2
aF6.3
aF6.4
aF6.5
aF6.6
aF6.7
aF6.8
aF6.9
aF7.0
aF7.1
aF7.2
aF7.3
aF7.4
aF7.5
aF7.6
aF7.7
aF7.8
aF7.9
aF8.0
aF8.1
aF8.2
aF8.3
aF8.4
aF8.5
aF8.6
aF8.7
aF8.8
aF8.9
aF9.0
aF9.1
aF9.2
aF9.3
aF9.4
aF9.5
aF9.6
aF9.7
aF9.8
aF9.9
aF10.0
aF10.1
aF10.2
aF10.3
aF10.4
aF10.5
aF10.6
aF10.7
aF10.8
aF10.9
aF11.0
aF11.1
aF11.2
aF11.3
aF11.4
aF11.5
aF11.6
aF11.7
aF11.8
aF11.9
aF12.0
aF12.1
aF12.2
aF12.3
aF12.4
aF12.5
aF12.6
aF12.7
aF12.8
aF12.9
aF13.0
aF13.1
aF13.2
aF13.3
aF13.4
aF13.5
aF13.6
aF13.7
aF13.8
aF13.9
aF14.0
aF14.1
aF14.2
aF14.3
aF14.4
aF14.5
aF14.6
aF14.7
aF14.8
aF14.9
aF15.0
aF15.1
aF15.2
aF15.3
aF15.4
aF15.5
aF15.6
aF15.7
aF15.8
aF15.9
aF16.0
aF16.1
aF16.2
aF16.3
aF16.4
aF16.5
aF16.6
aF16.7
aF16.8
aF16.9
aF17.0
aF17.1
aF17.2
aF17.3
aF17.4
aF17.5
aF17.6
aF17.7
aF17.8
aF17.9
aF18.0
aF18.1
aF18.2
aF18.3
aF18.4
aF18.5
aF18.6
aF18.7
aF18.8
aF18.9
aF19.0
aF19.1
aF19.2
aF19.3
aF19.4
aF19.5
aF19.6
aF19.7
aF19.8
aF19.9
aF20.0
aF20.1
aF20.2
aF20.3
aF20.4
aF20.5
aF20.6
aF20.7
aF20.8
aF20.9
aF21.0
aF21.1
aF21.2
aF21.3
aF21.4
aF21.5
aF21.6
aF21.7
aF21.8
aF21.9
aF22.0
aF22.1
aF22.2
aF22.3
aF22.4
aF22.5
aF22.6
aF22.7
aF22.8
aF22.9
aF23.0
aF23.1
aF23.2
aF23.3
aF23.4
aF23.5
aF23.6
aF23.7
aF23.8
aF23.9
aF24.0
aF24.1
aF24.2
aF24.3
aF24.4
aF24.5
aF24.6
aF24.7
aF24.8
aF24.9
aF25.0
aF25.1
aF25.2
aF25.3
aF25.4
aF25.5
aF25.6
aF25.7
aF25.8
aF25.9
aF26.0
aF26.1
aF26.2
aF26.3
aF26.4
aF26.5
aF26.6
aF26.7
aF26.8
aF26.9
aF27.0
aF27.1
aF27.2
aF27.3
aF27.4
aF27.5
aF27.6
aF27.7
aF27.8
aF27.9
aF28.0
aF28.1
aF28.2
aF28.3
aF28.4
aF28.5
aF28.6
aF28.7
aF28.8
aF28.9
aF29.0
aF29.1
aF29.2
aF29.3
aF29.4
aF29.5
aF29.6
aF29.7
aF29.8
aF29.9
aF30.0
aF30.1
aF30.2
aF30.3
aF30.4
aF30.5
aF30.6
aF30.7
aF30.8
aF30.9
aF31.0
aF31.1
aF31.2
aF31.3
aF31.4
aF31.5
aF31.6
aF31.7
aF31.8
aF31.9
aF32.0
aF32.1
aF32.2
aF32.3
aF32.4
aF32.5
aF32.6
aF32.7
aF32.8
aF32.9
aF33.0
aF33.1
aF33.2
aF33.3
aF33.4
aF33.5
aF33.6
aF33.7
aF33.8
aF33.9
aF34.0
aF34.1
aF34.2
aF34.3
aF34.4
aF34.5
aF34.6
aF34.7
aF34.8
aF34.9
aF35.0
aF35.1
aF35.2
aF35.3
aF35.4
aF35.5
aF35.6
aF35.7
aF35.8
aF35.9
aF36.0
aF36.1
aF36.2
aF36.3
aF36.4
aF36.5
aF36.6
aF36.7
aF36.8
aF36.9
aF37.0
aF37.1
aF37.2
aF37.3
aF37.4
aF37.5
aF37.6
aF37.7
aF37.8
aF37.9
aF38.0
aF38.1
aF38.2
aF38.3
aF38.4
aF38.5
aF38.6
aF38.7
aF38.8
aF38.9
aF39.0
aF39.1
aF39.2
aF39.3
aF39.4
aF39.5
aF39.6
aF39.7
aF39.8
aF39.9
aF40.0
aF40.1
aF40.2
aF40.3
aF40.4
aF40.5
aF40.6
aF40.7
aF40.8
aF40.9
aF41.0
aF41.1
aF41.2
aF41.3
aF41.4
aF41.5
aF41.6
aF41.7
aF41.8
aF41.9
aF42.0
aF42.1
aF42.2
aF42.3
aF42.4
aF42.5
aF42.6
aF42.7
aF42.8
aF42.9
aF43.0
aF43.1
aF43.2
aF43.3
aF43.4
aF43.5
aF43.6
aF43.7
aF43.8
aF43.9
aF44.0
aF44.1
aF44.2
aF44.3
aF44.4
aF44.5
aF44.6
aF44.7
aF44.8
aF44.9
aF45.0
aF45.1
aF45.2
aF45.3
aF45.4
aF45.5
aF45.6
aF45.7
aF45.8
aF45.9
aF46.0
aF46.1
aF46.2
aF46.3
aF46.4
aF46.5
aF46.6
aF46.7
aF46.8
aF46.9
aF47.0
aF47.1
aF47.2
aF47.3
aF47.4
aF47.5
aF47.6
aF47.7
aF47.8
aF47.9
aF48.0
aF48.1
aF48.2
aF48.3
aF48.4
aF48.5
aF48.6
aF48.7
aF48.8
aF48.9
aF49.0
aF49.1
aF49.2
aF49.3
aF49.4
aF49.5
aF49.6
aF49.7
aF49.8
aF49.9
aF50.0
aF50.1
aF50.2
aF50.3
aF50.4
aF50.5
aF50.6
aF50.7
aF50.8
aF50.9
aF51.0
aF51.1
aF51.2
aF51.3
aF51.4
aF51.5
aF51.6
aF51.7
aF51.8
aF51.9
aF52.0
aF52.1
aF52.2
aF52.3
aF52.4
aF52.5
aF52.6
aF52.7
aF52.8
aF52.9
aF53.0
aF53.1
aF53.2
aF53.3
aF53.4
aF53.5
aF53.6
aF53.7
aF53.8
aF53.9
aF54.0
aF54.1
aF54.2
aF54.3
aF54.4
aF54.5
aF54.6
aF54.7
aF54.8
aF54.9
aF55.0
aF55.1
aF55.2
aF55.3
aF55.4
aF55.5
aF55.6
aF55.7
aF55.8
aF55.9
aF56.0
aF56.1
aF56.2
aF56.3
aF56.4
aF56.5
aF56.6
aF56.7
aF56.8
aF56.9
aF57.0
aF57.1
aF57.2
aF57.3
aF57.4
aF57.5
aF57.6
aF57.7
aF57.8
aF57.9
aF58.0
aF58.1
aF58.2
aF58.3
aF58.4
aF58.5
aF58.6
aF58.7
aF58.8
aF58.9
aF59.0
aF59.1
aF59.2
aF59.3
aF59.4
aF59.5
aF59.6
aF59.7
aF59.8
aF59.9
aF60.0
aF60.1
aF60.2
aF60.3
aF60.4
aF60.5
aF60.6
aF60.7
aF60.8
aF60.9
aF61.0
aF61.1
aF61.2
aF61.3
aF61.4
aF61.5
aF61.6
aF61.7
aF61.8
aF61.9
aF62.0
aF62.1
aF62.2
aF62.3
aF62.4
aF62.5
aF62.6
aF62.7
aF62.8
aF62.9
aF63.0
aF63.1
aF63.2
aF63.3
aF63.4
aF63.5
aF63.6
aF63.7
aF63.8
aF63.9
aF64.0
aF64.1
aF64.2
aF64.3
aF64.4
aF64.5
aF64.6
aF64.7
aF64.8
aF64.9
aF65.0
aF65.1
aF65.2
aF65.3
aF65.4
aF65.5
aF65.6
aF65.7
aF65.8
aF65.9
aF66.0
aF66.1
aF66.2
aF66.3
aF66.4
aF66.5
aF66.6
aF66.7
aF66.8
aF66.9
aF67.0
aF67.1
aF67.2
aF67.3
aF67.4
aF67.5
aF67.6
aF67.7
aF67.8
aF67.9
aF68.0
aF68.1
aF68.2
aF68.3
aF68.4
aF68.5
aF68.6
aF68.7
aF68.8
aF68.9
aF69.0
aF69.1
aF69.2
aF69.3
aF69.4
aF69.5
aF69.6
aF69.7
aF69.8
aF69.9
aF70.0
aF70.1
aF70.2
aF70.3
aF70.4
aF70.5
aF70.6
aF70.7
aF70.8
aF70.9
aF71.0
aF71.1
aF71.2
aF71.3
aF71.4
aF71.5
aF71.6
aF71.7
aF71.8
aF71.9
aF72.0
aF72.1
aF72.2
aF72.3
aF72.4
aF72.5
aF72.6
aF72.7
aF72.8
aF72.9
aF73.0
aF73.1
aF73.2
aF73.3
aF73.4
aF73.5
aF73.6
aF73.7
aF73.8
aF73.9
aF74.0
aF74.1
aF74.2
aF74.3
aF74.4
aF74.5
aF74.6
aF74.7
aF74.8
aF74.9
aF75.0
aF75.1
aF75.2
aF75.3
aF75.4
aF75.5
aF75.6
aF75.7
aF75.8
aF75.9
aF76.0
aF76.1
aF76.2
aF76.3
aF76.4
aF76.5
aF76.6
aF76.7
aF76.8
aF76.9
aF77.0
aF77.1
aF77.2
aF77.3
aF77.4
aF77.5
aF77.6
aF77.7
aF77.8
aF77.9
aF78.0
aF78.1
aF78.2
aF78.3
aF78.4
aF78.5
aF78.6
aF78.7
aF78.8
aF78.9
aF79.0
aF79.1
aF79.2
aF79.3
aF79.4
aF79.5
aF79.6
aF79.7
aF79.8
aF79.9
aF80.0
aF80.1
aF80.2
aF80.3
aF80.4
aF80.5
aF80.6
aF80.7
aF80.8
aF80.9
aF81.0
aF81.1
aF81.2
aF81.3
aF81.4
aF81.5
aF81.6
aF81.7
aF81.8
aF81.9
aF82.0
aF82.1
aF82.2
aF82.3
aF82.4
aF82.5
aF82.6
aF82.7
aF82.8
aF82.9
aF83.0
aF83.1
aF83.2
aF83.3
aF83.4
aF83.5
aF83.6
aF83.7
aF83.8
aF83.9
aF84.0
aF84.1
aF84.2
aF84.3
aF84.4
aF84.5
aF84.6
aF84.7
aF84.8
aF84.9
aF85.0
aF85.1
aF85.2
aF85.3
aF85.4
aF85.5
aF85.6
aF85.7
aF85.8
aF85.9
aF86.0
aF86.1
aF86.2
aF86.3
aF86.4
aF86.5
aF86.6
aF86.7
aF86.8
aF86.9
aF87.0
aF87.1
aF87.2
aF87.3
aF87.4
aF87.5
aF87.6
aF87.7
aF87.8
aF87.9
aF88.0
aF88.1
aF88.2
aF88.3
aF88.4
aF88.5
aF88.6
aF88.7
aF88.8
aF88.9
aF89.0
aF89.1
aF89.2
aF89.3
aF89.4
aF89.5
aF89.6
aF89.7
aF89.8
aF89.9
aF90.0
aF90.1
aF90.2
aF90.3
aF90.4
aF90.5
aF90.6
aF90.7
aF90.8
aF90.9
aF91.0
aF91.1
aF91.2
aF91.3
aF91.4
aF91.5
aF91.6
aF91.7
aF91.8
aF91.9
aF92.0
aF92.1
aF92.2
aF92.3
aF92.4
aF92.5
aF92.6
aF92.7
aF92.8
aF92.9
aF93.0
aF93.1
aF93.2
aF93.3
aF93.4
aF93.5
aF93.6
aF93.7
aF93.8
aF93.9
aF94.0
aF94.1
aF94.2
aF94.3
aF94.4
aF94.5
aF94.6
aF94.7
aF94.8
aF94.9
aF95.0
aF95.1
aF95.2
aF95.3
aF95.4
aF95.5
aF95.6
aF95.7
aF95.8
aF95.9
aF96.0
aF96.1
aF96.2
aF96.3
aF96.4
aF96.5
aF96.6
aF96.7
aF96.8
aF96.9
aF97.0
aF97.1
aF97.2
aF97.3
aF97.4
aF97.5
aF97.6
aF97.7
aF97.8
aF97.9
aF98.0
aF98.1
aF98.2
aF98.3
aF98.4
aF98.5
aF98.6
aF98.7
aF98.8
aF98.9
aF99.0
aF99.1
aF99.2
aF99.3
aF99.4
aF99.5
aF99.6
aF99.7
aF99.8
aF99.9
a.(lp0
F0.0
aF0.5
aF1.0
aF1.5
aF2.0
aF2.5
aF3.0
aF3.5
aF4.0
aF4.5
aF5.0
aF5.5
aF6.0
aF6.5
aF7.0
aF7.5
aF8.0
aF8.5
aF9.0
aF9.5
aF10.0
aF10.5
aF11.0
aF11.5
aF12.0
aF12.5
aF13.0
aF13.5
aF14.0
aF14.5
aF15.0
aF15.5
aF16.0
aF16.5
aF17.0
aF17.5
aF18.0
aF18.5
aF19.0
aF19.5
aF20.0
aF20.5
aF21.0
aF21.5
aF22.0
aF22.5
aF23.0
aF23.5
aF24.0
aF24.5
aF25.0
aF25.5
aF26.0
aF26.5
aF27.0
aF27.5
aF28.0
aF28.5
aF29.0
aF29.5
aF30.0
aF30.5
aF31.0
aF31.5
aF32.0
aF32.5
aF33.0
aF33.5
aF34.0
aF34.5
aF35.0
aF35.5
aF36.0
aF36.5
aF37.0
aF37.5
aF38.0
aF38.5
aF39.0
aF39.5
aF40.0
aF40.5
aF41.0
aF41.5
aF42.0
aF42.5
aF43.0
aF43.5
aF44.0
aF44.5
aF45.0
aF45.5
aF46.0
aF46.5
aF47.0
aF47.5
aF48.0
aF48.5
aF49.0
aF49.5
aF50.0
aF50.5
aF51.0
aF51.5
aF52.0
aF52.5
aF53.0
aF53.5
aF54.0
aF54.5
aF55.0
aF55.5
aF56.0
aF56.5
aF57.0
aF57.5
aF58.0
aF58.5
aF59.0
aF59.5
aF60.0
aF60.5
aF61.0
aF61.5
aF62.0
aF62.5
aF63.0
aF63.5
aF64.0
aF64.5
aF65.0
aF65.5
aF66.0
aF66.5
aF67.0
aF67.5
aF68.0
aF68.5
aF69.0
aF69.5
aF70.0
aF70.5
aF71.0
aF71.5
aF72.0
aF72.5
aF73.0
aF73.5
aF74.0
aF74.5
aF75.0
aF75.5
aF76.0
aF76.5
aF77.0
aF77.5
aF78.0
aF78.5
aF79.0
aF79.5
aF80.0
aF80.5
aF81.0
aF81.5
aF82.0
aF82.5
aF83.0
aF83.5
aF84.0
aF84.5
aF85.0
aF85.5
aF86.0
aF86.5
aF87.0
aF87.5
aF88.0
aF88.5
aF89.0
aF89.5
aF90.0
aF90.5
aF91.0
aF91.5
aF92.0
aF92.5
aF93.0
aF93.5
aF94.0
aF94.5
aF95.0
aF95.5
aF96.0
aF96.5
aF97.0
aF97.5
aF98.0
aF98.5
aF99.0
aF99.5
aF100.0
aF100.5
aF101.0
aF101.5
aF102.0
aF102.5
aF103.0
aF103.5
aF104.0
aF104.5
aF105.0
aF105.5
aF106.0
aF106.5
aF107.0
aF107.5
aF108.0
aF108.5
aF109.0
aF109.5
aF110.0
aF110.5
aF111.0
aF111.5
aF112.0
aF112.5
aF113.0
aF113.5
aF114.0
aF114.5
aF115.0
aF115.5
aF116.0
aF116.5
aF117.0
aF117.5
aF118.0
aF118.5
aF119.0
aF119.5
aF120.0
aF120.5
aF121.0
aF121.5
aF122.0
aF122.5
aF123.0
aF123.5
aF124.0
aF124.5
aF125.0
aF125.5
aF126.0
aF126.5
aF127.0
aF127.5
aF128.0
aF128.5
aF129.0
aF129.5
aF130.0
aF130.5
aF131.0
aF131.5
aF132.0
aF132.5
aF133.0
aF133.5
aF134.0
aF134.5
aF135.0
aF135.5
aF136.0
aF136.5
aF137.0
aF137.5
aF138.0
aF138.5
aF139.0
aF139.5
aF140.0
aF140.5
aF141.0
aF141.5
aF142.0
aF142.5
aF143.0
aF143.5
aF144.0
aF144.5
aF145.0
aF145.5
aF146.0
aF146.5
aF147.0
aF147.5
aF148.0
aF148.5
aF149.0
aF149.5
aF150.0
aF150.5
aF151.0
aF151.5
aF152.0
aF152.5
aF153.0
aF153.5
aF154.0
aF154.5
aF155.0
aF155.5
aF156.0
aF156.5
aF157.0
aF157.5
aF158.0
aF158.5
aF159.0
aF159.5
aF160.0
aF160.5
aF161.0
aF161.5
aF162.0
aF162.5
aF163.0
aF163.5
aF164.0
aF164.5
aF165.0
aF165.5
aF166.0
aF166.5
aF167.0
aF167.5
aF168.0
aF168.5
aF169.0
aF169.5
aF170.0
aF170.5
aF171.0
aF171.5
aF172.0
aF172.5
aF173.0
aF173.5
aF174.0
aF174.5
aF175.0
aF175.5
aF176.0
aF176.5
aF177.0
aF177.5
aF178.0
aF178.5
aF179.0
aF179.5
aF180.0
aF180.5
aF181.0
aF181.5
aF182.0
aF182.5
aF183.0
aF183.5
aF184.0
aF184.5
aF185.0
aF185.5
aF186.0
aF186.5
aF187.0
aF187.5
aF188.0
aF188.5
aF189.0
aF189.5
aF190.0
aF190.5
aF191.0
aF191.5
aF192.0
aF192.5
aF193.0
aF193.5
aF194.0
aF194.5
aF195.0
aF195.5
aF196.0
aF196.5
aF197.0
aF197.5
aF198.0
aF198.5
aF199.0
aF199.5
aF200.0
aF200.5
aF201.0
aF201.5
aF202.0
aF202.5
aF203.0
aF203.5
aF204.0
aF204.5
aF205.0
aF205.5
aF206.0
aF206.5
aF207.0
aF207.5
aF208.0
aF208.5
aF209.0
aF209.5
aF210.0
aF210.5
aF211.0
aF211.5
aF212.0
aF212.5
aF213.0
aF213.5
aF214.0
aF214.5
aF215.0
aF215.5
aF216.0
aF216.5
aF217.0
aF217.5
aF218.0
aF218.5
aF219.0
aF219.5
aF220.0
aF220.5
aF221.0
aF221.5
aF222.0
aF222.5
aF223.0
aF223.5
aF224.0
aF224.5
aF225.0
aF225.5
aF226.0
aF226.5
aF227.0
aF227.5
aF228.0
aF228.5
aF229.0
aF229.5
aF230.0
aF230.5
aF231.0
aF231.5
aF232.0
aF232.5
aF233.0
aF233.5
aF234.0
aF234.5
aF235.0
aF235.5
aF236.0
aF236.5
aF237.0
aF237.5
aF238.0
aF238.5
aF239.0
aF239.5
aF240.0
aF240.5
aF241.0
aF241.5
aF242.0
aF242.5
aF243.0
aF243.5
aF244.0
aF244.5
aF245.0
aF245.5
aF246.0
aF246.5
aF247.0
aF247.5
aF248.0
aF248.5
aF249.0
aF249.5
aF250.0
aF250.5
aF251.0
aF251.5
aF252.0
aF252.5
aF253.0
aF253.5
aF254.0
aF254.5
aF255.0
aF255.5
aF256.0
aF256.5
aF257.0
aF257.5
aF258.0
aF258.5
aF259.0
aF259.5
aF260.0
aF260.5
aF261.0
aF261.5
aF262.0
aF262.5
aF263.0
aF263.5
aF264.0
aF264.5
aF265.0
aF265.5
aF266.0
aF266.5
aF267.0
aF267.5
aF268.0
aF268.5
aF269.0
aF269.5
aF270.0
aF270.5
aF271.0
aF271.5
aF272.0
aF272.5
aF273.0
aF273.5
aF274.0
aF274.5
aF275.0
aF275.5
aF276.0
aF276.5
aF277.0
aF277.5
aF278.0
aF278.5
aF279.0
aF279.5
aF280.0
aF280.5
aF281.0
aF281.5
aF282.0
aF282.5
aF283.0
aF283.5
aF284.0
aF284.5
aF285.0
aF285.5
aF286.0
aF286.5
aF287.0
aF287.5
aF288.0
aF288.5
aF289.0
aF289.5
aF290.0
aF290.5
aF291.0
aF291.5
aF292.0
aF292.5
aF293.0
aF293.5
aF294.0
aF294.5
aF295.0
aF295.5
aF296.0
aF296.5
aF297.0
aF297.5
aF298.0
aF298.5
aF299.0
aF299.5
aF300.0
aF300.5
aF301.0
aF301.5
aF302.0
aF302.5
aF303.0
aF303.5
aF304.0
aF304.5
aF305.0
aF305.5
aF306.0
aF306.5
aF307.0
aF307.5
aF308.0
aF308.5
aF309.0
aF309.5
aF310.0
aF310.5
aF311.0
aF311.5
aF312.0
aF312.5
aF313.0
aF313.5
aF314.0
aF314.5
aF315.0
aF315.5
aF316.0
aF316.5
aF317.0
aF317.5
aF318.0
aF318.5
aF319.0
aF319.5
aF320.0
aF320.5
aF321.0
aF321.5
aF322.0
aF322.5
aF323.0
aF323.5
aF324.0
aF324.5
aF325.0
aF325.5
aF326.0
aF326.5
aF327.0
aF327.5
aF328.0
aF328.5
aF329.0
aF329.5
aF330.0
aF330.5
aF331.0
aF331.5
aF332.0
aF332.5
aF333.0
aF333.5
aF334.0
aF334.5
aF335.0
aF335.5
aF336.0
aF336.5
aF337.0
aF337.5
aF338.0
aF338.5
aF339.0
aF339.5
aF340.0
aF340.5
aF341.0
aF341.5
aF342.0
aF342.5
aF343.0
aF343.5
aF344.0
aF344.5
aF345.0
aF345.5
aF346.0
aF346.5
aF347.0
aF347.5
aF348.0
aF348.5
aF349.0
aF349.5
aF350.0
aF350.5
aF351.0
aF351.5
aF352.0
aF352.5
aF353.0
aF353.5
aF354.0
aF354.5
aF355.0
aF355.5
aF356.0
aF356.5
aF357.0
aF357.5
aF358.0
aF358.5
aF359.0
aF359.5
aF360.0
aF360.5
aF361.0
aF361.5
aF362.0
aF362.5
aF363.0
aF363.5
aF364.0
aF364.5
aF365.0
aF365.5
aF366.0
aF366.5
aF367.0
aF367.5
aF368.0
aF368.5
aF369.0
aF369.5
aF370.0
aF370.5
aF371.0
aF371.5
aF372.0
aF372.5
aF373.0
aF373.5
aF374.0
aF374.5
aF375.0
aF375.5
aF376.0
aF376.5
aF377.0
aF377.5
aF378.0
aF378.5
aF379.0
aF379.5
aF380.0
aF380.5
aF381.0
aF381.5
aF382.0
aF382.5
aF383.0
aF383.5
aF384.0
aF384.5
aF385.0
aF385.5
aF386.0
aF386.5
aF387.0
aF387.5
aF388.0
aF388.5
aF389.0
aF389.5
aF390.0
aF390.5
aF391.0
aF391.5
aF392.0
aF392.5
aF393.0
aF393.5
aF394.0
aF394.5
aF395.0
aF395.5
aF396.0
aF396.5
aF397.0
aF397.5
aF398.0
aF398.5
aF399.0
aF399.5
aF400.0
aF400.5
aF401.0
aF401.5
aF402.0
aF402.5
aF403.0
aF403.5
aF404.0
aF404.5
aF405.0
aF405.5
aF406.0
aF406.5
aF407.0
aF407.5
aF408.0
aF408.5
aF409.0
aF409.5
aF410.0
aF410.5
aF411.0
aF411.5
aF412.0
aF412.5
aF413.0
aF413.5
aF414.0
aF414.5
aF415.0
aF415.5
aF416.0
aF416.5
aF417.0
aF417.5
aF418.0
aF418.5
aF419.0
aF419.5
aF420.0
aF420.5
aF421.0
aF421.5
aF422.0
aF422.5
aF423.0
aF423.5
aF424.0
aF424.5
aF425.0
aF425.5
aF426.0
aF426.5
aF427.0
aF427.5
aF428.0
aF428.5
aF429.0
aF429.5
aF430.0
aF430.5
aF431.0
aF431.5
aF432.0
aF432.5
aF433.0
aF433.5
aF434.0
aF434.5
aF435.0
aF435.5
aF436.0
aF436.5
aF437.0
aF437.5
aF438.0
aF438.5
aF439.0
aF439.5
aF440.0
aF440.5
aF441.0
aF441.5
aF442.0
aF442.5
aF443.0
aF443.5
aF444.0
aF444.5
aF445.0
aF445.5
aF446.0
aF446.5
aF447.0
aF447.5
aF448.0
aF448.5
aF449.0
aF449.5
aF450.0
aF450.5
aF451.0
aF451.5
aF452.0
aF452.5
aF453.0
aF453.5
aF454.0
aF454.5
aF455.0
aF455.5
aF456.0
aF456.5
aF457.0
aF457.5
aF458.0
aF458.5
aF459.0
aF459.5
aF460.0
aF460.5
aF461.0
aF461.5
aF462.0
aF462.5
aF463.0
aF463.5
aF464.0
aF464.5
aF465.0
aF465.5
aF466.0
aF466.5
aF467.0
aF467.5
aF468.0
aF468.5
aF469.0
aF469.5
aF470.0
aF470.5
aF471.0
aF471.5
aF472.0
aF472.5
aF473.0
aF473.5
aF474.0
aF474.5
aF475.0
aF475.5
aF476.0
aF476.5
aF477.0
aF477.5
aF478.0
aF478.5
aF479.0
aF479.5
aF480.0
aF480.5
aF481.0
aF481.5
aF482.0
aF482.5
aF483.0
aF483.5
aF484.0
aF484.5
aF485.0
aF485.5
aF486.0
aF486.5
aF487.0
aF487.5
aF488.0
aF488.5
aF489.0
aF489.5
aF490.0
aF490.5
aF491.0
aF491.5
aF492.0
aF492.5
aF493.0
aF493.5
aF494.0
aF494.5
aF495.0
aF495.5
aF496.0
aF496.5
aF497.0
aF497.5
aF498.0
aF498.5
aF499.0
aF499.5
a.