(lp0
S"i'm"
p1
aS'a'
p2
aS'lumberjack'
p3
aS'and'
p4
aS"i'm"
p5
aS'ok,'
p6
aS'i'
p7
aS'sleep'
p8
aS'all'
p9
aS'night'
p10
aS'and'
p11
ag7
aS'work'
p12
aS'all'
p13
aS'day.'
p14
aS"i'm"
p15
ag2
aS'lumberjack'
p16
aS'and'
p17
aS"i'm"
p18
aS'ok'
p19
a.