(lp0
S'I'
p1
aS'like'
p2
aS'traffic'
p3
aS'lights,'
p4
aS'but'
p5
aS'only'
p6
aS'when'
p7
aS"they're"
p8
aS'green'
p9
a.(lp0
S'I'
p1
aS'like'
p2
aS'Chinese,'
p3
aS'they'
p4
aS'only'
p5
aS'come'
p6
aS'up'
p7
aS'to'
p8
aS'your'
p9
aS'knees'
p10
a.